; Function Attrs: nofree nounwind uwtable
define dso_local noalias noundef ptr @arhosek_xyz_skymodelstate_alloc_init(double noundef %0, double noundef %1, double noundef %2) local_unnamed_addr #5 {
  %4 = tail call noalias dereferenceable_or_null(1088) ptr @malloc(i64 noundef 1088) #13
  %5 = getelementptr inbounds nuw i8, ptr %4, i64 888
  store double 0x3F723AC80BF81B3F, ptr %5, align 8, !tbaa !15
  %6 = getelementptr inbounds nuw i8, ptr %4, i64 880
  store double %0, ptr %6, align 8, !tbaa !17
  %7 = getelementptr inbounds nuw i8, ptr %4, i64 1072
  store double %1, ptr %7, align 8, !tbaa !18
  %8 = getelementptr inbounds nuw i8, ptr %4, i64 1080
  store double %2, ptr %8, align 8, !tbaa !19
  %9 = getelementptr inbounds nuw i8, ptr %4, i64 792
  br label %10

10:                                               ; preds = %3, %10
  %indvars.iv = phi i64 [ 0, %3 ], [ %indvars.iv.next, %10 ]
  %11 = getelementptr inbounds nuw [3 x ptr], ptr @datasetsXYZ, i64 0, i64 %indvars.iv
  %12 = load ptr, ptr %11, align 8, !tbaa !20
  %13 = getelementptr inbounds nuw [11 x [9 x double]], ptr %4, i64 0, i64 %indvars.iv
  tail call void @ArHosekSkyModel_CookConfiguration(ptr noundef %12, ptr noundef %13, double noundef %0, double noundef %1, double noundef %2)
  %14 = getelementptr inbounds nuw [3 x ptr], ptr @datasetsXYZRad, i64 0, i64 %indvars.iv
  %15 = load ptr, ptr %14, align 8, !tbaa !20
  %16 = tail call double @ArHosekSkyModel_CookRadianceConfiguration(ptr noundef %15, double noundef %0, double noundef %1, double noundef %2)
  %17 = getelementptr inbounds nuw [11 x double], ptr %9, i64 0, i64 %indvars.iv
  store double %16, ptr %17, align 8, !tbaa !8
  %indvars.iv.next = add nuw nsw i64 %indvars.iv, 1
  %exitcond.not = icmp eq i64 %indvars.iv.next, 3
  br i1 %exitcond.not, label %18, label %10, !llvm.loop !27

18:                                               ; preds = %10
  ret ptr %4
}